; Function Attrs: mustprogress uwtable
define internal noundef float @_ZZN16btCollisionWorld25objectQuerySingleInternalEPK13btConvexShapeRK11btTransformS5_PK24btCollisionObjectWrapperRNS_20ConvexResultCallbackEfEN32BridgeTriangleConvexcastCallback9reportHitERK9btVector3SE_fii(ptr nocapture noundef nonnull readonly align 8 dereferenceable(248) %this, ptr nocapture noundef nonnull readonly align 4 dereferenceable(16) %hitNormalLocal, ptr nocapture noundef nonnull readonly align 4 dereferenceable(16) %hitPointLocal, float noundef %hitFraction, i32 noundef %partId, i32 noundef %triangleIndex) unnamed_addr #4 align 2 {
entry:
  %shapeInfo = alloca %"struct.btCollisionWorld::LocalShapeInfo", align 4
  %convexResult = alloca %"struct.btCollisionWorld::LocalConvexResult", align 8
  store i32 %partId, ptr %shapeInfo, align 4
  %m_triangleIndex = getelementptr inbounds i8, ptr %shapeInfo, i64 4
  store i32 %triangleIndex, ptr %m_triangleIndex, align 4
  %m_resultCallback = getelementptr inbounds i8, ptr %this, i64 224
  %0 = load ptr, ptr %m_resultCallback, align 8
  %m_closestHitFraction = getelementptr inbounds i8, ptr %0, i64 8
  %1 = load float, ptr %m_closestHitFraction, align 8
  %cmp = fcmp ult float %1, %hitFraction
  br i1 %cmp, label %return, label %if.then

if.then:                                          ; preds = %entry
  %m_collisionObject = getelementptr inbounds i8, ptr %this, i64 232
  %2 = load ptr, ptr %m_collisionObject, align 8
  store ptr %2, ptr %convexResult, align 8
  %m_localShapeInfo.i = getelementptr inbounds i8, ptr %convexResult, i64 8
  store ptr %shapeInfo, ptr %m_localShapeInfo.i, align 8
  %m_hitNormalLocal.i = getelementptr inbounds i8, ptr %convexResult, i64 16
  call void @llvm.memcpy.p0.p0.i64(ptr noundef nonnull align 8 dereferenceable(16) %m_hitNormalLocal.i, ptr noundef nonnull align 4 dereferenceable(16) %hitNormalLocal, i64 16, i1 false)
  %m_hitPointLocal.i = getelementptr inbounds i8, ptr %convexResult, i64 32
  call void @llvm.memcpy.p0.p0.i64(ptr noundef nonnull align 8 dereferenceable(16) %m_hitPointLocal.i, ptr noundef nonnull align 4 dereferenceable(16) %hitPointLocal, i64 16, i1 false)
  %m_hitFraction.i = getelementptr inbounds i8, ptr %convexResult, i64 48
  store float %hitFraction, ptr %m_hitFraction.i, align 8
  %vtable = load ptr, ptr %0, align 8
  %vfn = getelementptr inbounds i8, ptr %vtable, i64 24
  %3 = load ptr, ptr %vfn, align 8
  %call = call noundef float %3(ptr noundef nonnull align 8 dereferenceable(20) %0, ptr noundef nonnull align 8 dereferenceable(52) %convexResult, i1 noundef zeroext true)
  br label %return

return:                                           ; preds = %entry, %if.then
  %retval.0 = phi float [ %call, %if.then ], [ %hitFraction, %entry ]
  ret float %retval.0
}